target datalayout = "e-m:e-p270:32:32-p271:32:32-p272:64:64-i64:64-i128:128-f80:128-n8:16:32:64-S128"
target triple = "x86_64-pc-linux-gnu"

%struct.mbedtls_hmac_drbg_context = type { %struct.mbedtls_md_context_t, [64 x i8], i32, i64, i32, i32, ptr, ptr }
%struct.mbedtls_md_context_t = type { ptr, ptr, ptr }

; Function Attrs: nounwind uwtable
define internal i32 @hmac_drbg_reseed_core(ptr noundef %0, ptr noundef %1, i64 noundef %2, i32 noundef %3) #0 {
  %5 = alloca i32, align 4
  %6 = alloca ptr, align 8
  %7 = alloca ptr, align 8
  %8 = alloca i64, align 8
  %9 = alloca i32, align 4
  %10 = alloca [384 x i8], align 16
  %11 = alloca i64, align 8
  %12 = alloca i32, align 4
  %13 = alloca i64, align 8
  %14 = alloca i32, align 4
  store ptr %0, ptr %6, align 8, !tbaa !3
  store ptr %1, ptr %7, align 8, !tbaa !14
  store i64 %2, ptr %8, align 8, !tbaa !16
  store i32 %3, ptr %9, align 4, !tbaa !19
  call void @llvm.lifetime.start.p0(i64 384, ptr %10) #7
  call void @llvm.lifetime.start.p0(i64 8, ptr %11) #7
  store i64 0, ptr %11, align 8, !tbaa !16
  call void @llvm.lifetime.start.p0(i64 4, ptr %12) #7
  store i32 -110, ptr %12, align 4, !tbaa !19
  call void @llvm.lifetime.start.p0(i64 8, ptr %13) #7
  %15 = load i32, ptr %9, align 4, !tbaa !19
  %16 = icmp eq i32 %15, 0
  br i1 %16, label %17, label %21

17:                                               ; preds = %4
  %18 = load ptr, ptr %6, align 8, !tbaa !3
  %19 = getelementptr inbounds nuw %struct.mbedtls_hmac_drbg_context, ptr %18, i32 0, i32 3
  %20 = load i64, ptr %19, align 8, !tbaa !23
  store i64 %20, ptr %13, align 8, !tbaa !16
  br label %27

21:                                               ; preds = %4
  %22 = load ptr, ptr %6, align 8, !tbaa !3
  %23 = getelementptr inbounds nuw %struct.mbedtls_hmac_drbg_context, ptr %22, i32 0, i32 3
  %24 = load i64, ptr %23, align 8, !tbaa !23
  %25 = mul i64 %24, 3
  %26 = udiv i64 %25, 2
  store i64 %26, ptr %13, align 8, !tbaa !16
  br label %27

27:                                               ; preds = %21, %17
  %28 = load i64, ptr %8, align 8, !tbaa !16
  %29 = icmp ugt i64 %28, 256
  br i1 %29, label %35, label %30

30:                                               ; preds = %27
  %31 = load i64, ptr %13, align 8, !tbaa !16
  %32 = load i64, ptr %8, align 8, !tbaa !16
  %33 = add i64 %31, %32
  %34 = icmp ugt i64 %33, 384
  br i1 %34, label %35, label %36

35:                                               ; preds = %30, %27
  store i32 -5, ptr %5, align 4
  store i32 1, ptr %14, align 4
  br label %37

36:                                               ; preds = %30
  store i32 0, ptr %14, align 4
  br label %37

37:                                               ; preds = %36, %35
  call void @llvm.lifetime.end.p0(i64 8, ptr %13) #7
  %38 = load i32, ptr %14, align 4
  switch i32 %38, label %115 [
    i32 0, label %39
  ]

39:                                               ; preds = %37
  %40 = getelementptr inbounds [384 x i8], ptr %10, i64 0, i64 0
  call void @llvm.memset.p0.i64(ptr align 16 %40, i8 0, i64 384, i1 false)
  %41 = load ptr, ptr %6, align 8, !tbaa !3
  %42 = getelementptr inbounds nuw %struct.mbedtls_hmac_drbg_context, ptr %41, i32 0, i32 6
  %43 = load ptr, ptr %42, align 8, !tbaa !24
  %44 = load ptr, ptr %6, align 8, !tbaa !3
  %45 = getelementptr inbounds nuw %struct.mbedtls_hmac_drbg_context, ptr %44, i32 0, i32 7
  %46 = load ptr, ptr %45, align 8, !tbaa !25
  %47 = getelementptr inbounds [384 x i8], ptr %10, i64 0, i64 0
  %48 = load ptr, ptr %6, align 8, !tbaa !3
  %49 = getelementptr inbounds nuw %struct.mbedtls_hmac_drbg_context, ptr %48, i32 0, i32 3
  %50 = load i64, ptr %49, align 8, !tbaa !23
  %51 = call i32 %43(ptr noundef %46, ptr noundef %47, i64 noundef %50)
  store i32 %51, ptr %12, align 4, !tbaa !19
  %52 = icmp ne i32 %51, 0
  br i1 %52, label %53, label %54

53:                                               ; preds = %39
  store i32 -9, ptr %5, align 4
  store i32 1, ptr %14, align 4
  br label %115

54:                                               ; preds = %39
  %55 = load ptr, ptr %6, align 8, !tbaa !3
  %56 = getelementptr inbounds nuw %struct.mbedtls_hmac_drbg_context, ptr %55, i32 0, i32 3
  %57 = load i64, ptr %56, align 8, !tbaa !23
  %58 = load i64, ptr %11, align 8, !tbaa !16
  %59 = add i64 %58, %57
  store i64 %59, ptr %11, align 8, !tbaa !16
  %60 = load i32, ptr %9, align 4, !tbaa !19
  %61 = icmp ne i32 %60, 0
  br i1 %61, label %62, label %86

62:                                               ; preds = %54
  %63 = load ptr, ptr %6, align 8, !tbaa !3
  %64 = getelementptr inbounds nuw %struct.mbedtls_hmac_drbg_context, ptr %63, i32 0, i32 6
  %65 = load ptr, ptr %64, align 8, !tbaa !24
  %66 = load ptr, ptr %6, align 8, !tbaa !3
  %67 = getelementptr inbounds nuw %struct.mbedtls_hmac_drbg_context, ptr %66, i32 0, i32 7
  %68 = load ptr, ptr %67, align 8, !tbaa !25
  %69 = getelementptr inbounds [384 x i8], ptr %10, i64 0, i64 0
  %70 = load i64, ptr %11, align 8, !tbaa !16
  %71 = getelementptr inbounds nuw i8, ptr %69, i64 %70
  %72 = load ptr, ptr %6, align 8, !tbaa !3
  %73 = getelementptr inbounds nuw %struct.mbedtls_hmac_drbg_context, ptr %72, i32 0, i32 3
  %74 = load i64, ptr %73, align 8, !tbaa !23
  %75 = udiv i64 %74, 2
  %76 = call i32 %65(ptr noundef %68, ptr noundef %71, i64 noundef %75)
  store i32 %76, ptr %12, align 4, !tbaa !19
  %77 = icmp ne i32 %76, 0
  br i1 %77, label %78, label %79

78:                                               ; preds = %62
  store i32 -9, ptr %5, align 4
  store i32 1, ptr %14, align 4
  br label %115

79:                                               ; preds = %62
  %80 = load ptr, ptr %6, align 8, !tbaa !3
  %81 = getelementptr inbounds nuw %struct.mbedtls_hmac_drbg_context, ptr %80, i32 0, i32 3
  %82 = load i64, ptr %81, align 8, !tbaa !23
  %83 = udiv i64 %82, 2
  %84 = load i64, ptr %11, align 8, !tbaa !16
  %85 = add i64 %84, %83
  store i64 %85, ptr %11, align 8, !tbaa !16
  br label %86

86:                                               ; preds = %79, %54
  %87 = load ptr, ptr %7, align 8, !tbaa !14
  %88 = icmp ne ptr %87, null
  br i1 %88, label %89, label %101

89:                                               ; preds = %86
  %90 = load i64, ptr %8, align 8, !tbaa !16
  %91 = icmp ne i64 %90, 0
  br i1 %91, label %92, label %101

92:                                               ; preds = %89
  %93 = getelementptr inbounds [384 x i8], ptr %10, i64 0, i64 0
  %94 = load i64, ptr %11, align 8, !tbaa !16
  %95 = getelementptr inbounds nuw i8, ptr %93, i64 %94
  %96 = load ptr, ptr %7, align 8, !tbaa !14
  %97 = load i64, ptr %8, align 8, !tbaa !16
  call void @llvm.memcpy.p0.p0.i64(ptr align 1 %95, ptr align 1 %96, i64 %97, i1 false)
  %98 = load i64, ptr %8, align 8, !tbaa !16
  %99 = load i64, ptr %11, align 8, !tbaa !16
  %100 = add i64 %99, %98
  store i64 %100, ptr %11, align 8, !tbaa !16
  br label %101

101:                                              ; preds = %92, %89, %86
  %102 = load ptr, ptr %6, align 8, !tbaa !3
  %103 = getelementptr inbounds [384 x i8], ptr %10, i64 0, i64 0
  %104 = load i64, ptr %11, align 8, !tbaa !16
  %105 = call i32 @mbedtls_hmac_drbg_update(ptr noundef %102, ptr noundef %103, i64 noundef %104)
  store i32 %105, ptr %12, align 4, !tbaa !19
  %106 = icmp ne i32 %105, 0
  br i1 %106, label %107, label %108

107:                                              ; preds = %101
  br label %111

108:                                              ; preds = %101
  %109 = load ptr, ptr %6, align 8, !tbaa !3
  %110 = getelementptr inbounds nuw %struct.mbedtls_hmac_drbg_context, ptr %109, i32 0, i32 2
  store i32 1, ptr %110, align 8, !tbaa !26
  br label %111

111:                                              ; preds = %108, %107
  %112 = getelementptr inbounds [384 x i8], ptr %10, i64 0, i64 0
  %113 = load i64, ptr %11, align 8, !tbaa !16
  call void @mbedtls_platform_zeroize(ptr noundef %112, i64 noundef %113)
  %114 = load i32, ptr %12, align 4, !tbaa !19
  store i32 %114, ptr %5, align 4
  store i32 1, ptr %14, align 4
  br label %115

115:                                              ; preds = %111, %78, %53, %37
  call void @llvm.lifetime.end.p0(i64 4, ptr %12) #7
  call void @llvm.lifetime.end.p0(i64 8, ptr %11) #7
  call void @llvm.lifetime.end.p0(i64 384, ptr %10) #7
  %116 = load i32, ptr %5, align 4
  ret i32 %116
}

; Function Attrs: nounwind uwtable
define hidden i32 @mbedtls_hmac_drbg_seed(ptr noundef %0, ptr noundef %1, ptr noundef %2, ptr noundef %3, ptr noundef %4, i64 noundef %5) #0 {
  %7 = alloca i32, align 4
  %8 = alloca ptr, align 8
  %9 = alloca ptr, align 8
  %10 = alloca ptr, align 8
  %11 = alloca ptr, align 8
  %12 = alloca ptr, align 8
  %13 = alloca i64, align 8
  %14 = alloca i32, align 4
  %15 = alloca i64, align 8
  %16 = alloca i32, align 4
  store ptr %0, ptr %8, align 8, !tbaa !3
  store ptr %1, ptr %9, align 8, !tbaa !22
  store ptr %2, ptr %10, align 8, !tbaa !27
  store ptr %3, ptr %11, align 8, !tbaa !27
  store ptr %4, ptr %12, align 8, !tbaa !14
  store i64 %5, ptr %13, align 8, !tbaa !16
  call void @llvm.lifetime.start.p0(i64 4, ptr %14) #7
  store i32 -110, ptr %14, align 4, !tbaa !19
  call void @llvm.lifetime.start.p0(i64 8, ptr %15) #7
  %17 = load ptr, ptr %8, align 8, !tbaa !3
  %18 = getelementptr inbounds nuw %struct.mbedtls_hmac_drbg_context, ptr %17, i32 0, i32 0
  %19 = load ptr, ptr %9, align 8, !tbaa !22
  %20 = call i32 @mbedtls_md_setup(ptr noundef %18, ptr noundef %19, i32 noundef 1)
  store i32 %20, ptr %14, align 4, !tbaa !19
  %21 = icmp ne i32 %20, 0
  br i1 %21, label %22, label %24

22:                                               ; preds = %6
  %23 = load i32, ptr %14, align 4, !tbaa !19
  store i32 %23, ptr %7, align 4
  store i32 1, ptr %16, align 4
  br label %75

24:                                               ; preds = %6
  %25 = load ptr, ptr %9, align 8, !tbaa !22
  %26 = call zeroext i8 @mbedtls_md_get_size(ptr noundef %25)
  %27 = zext i8 %26 to i64
  store i64 %27, ptr %15, align 8, !tbaa !16
  %28 = load ptr, ptr %8, align 8, !tbaa !3
  %29 = getelementptr inbounds nuw %struct.mbedtls_hmac_drbg_context, ptr %28, i32 0, i32 0
  %30 = load ptr, ptr %8, align 8, !tbaa !3
  %31 = getelementptr inbounds nuw %struct.mbedtls_hmac_drbg_context, ptr %30, i32 0, i32 1
  %32 = getelementptr inbounds [64 x i8], ptr %31, i64 0, i64 0
  %33 = load i64, ptr %15, align 8, !tbaa !16
  %34 = call i32 @mbedtls_md_hmac_starts(ptr noundef %29, ptr noundef %32, i64 noundef %33)
  store i32 %34, ptr %14, align 4, !tbaa !19
  %35 = icmp ne i32 %34, 0
  br i1 %35, label %36, label %38

36:                                               ; preds = %24
  %37 = load i32, ptr %14, align 4, !tbaa !19
  store i32 %37, ptr %7, align 4
  store i32 1, ptr %16, align 4
  br label %75

38:                                               ; preds = %24
  %39 = load ptr, ptr %8, align 8, !tbaa !3
  %40 = getelementptr inbounds nuw %struct.mbedtls_hmac_drbg_context, ptr %39, i32 0, i32 1
  %41 = getelementptr inbounds [64 x i8], ptr %40, i64 0, i64 0
  %42 = load i64, ptr %15, align 8, !tbaa !16
  call void @llvm.memset.p0.i64(ptr align 8 %41, i8 1, i64 %42, i1 false)
  %43 = load ptr, ptr %10, align 8, !tbaa !27
  %44 = load ptr, ptr %8, align 8, !tbaa !3
  %45 = getelementptr inbounds nuw %struct.mbedtls_hmac_drbg_context, ptr %44, i32 0, i32 6
  store ptr %43, ptr %45, align 8, !tbaa !24
  %46 = load ptr, ptr %11, align 8, !tbaa !27
  %47 = load ptr, ptr %8, align 8, !tbaa !3
  %48 = getelementptr inbounds nuw %struct.mbedtls_hmac_drbg_context, ptr %47, i32 0, i32 7
  store ptr %46, ptr %48, align 8, !tbaa !25
  %49 = load ptr, ptr %8, align 8, !tbaa !3
  %50 = getelementptr inbounds nuw %struct.mbedtls_hmac_drbg_context, ptr %49, i32 0, i32 3
  %51 = load i64, ptr %50, align 8, !tbaa !23
  %52 = icmp eq i64 %51, 0
  br i1 %52, label %53, label %66

53:                                               ; preds = %38
  %54 = load i64, ptr %15, align 8, !tbaa !16
  %55 = icmp ule i64 %54, 20
  br i1 %55, label %56, label %57

56:                                               ; preds = %53
  br label %61

57:                                               ; preds = %53
  %58 = load i64, ptr %15, align 8, !tbaa !16
  %59 = icmp ule i64 %58, 28
  %60 = select i1 %59, i32 24, i32 32
  br label %61

61:                                               ; preds = %57, %56
  %62 = phi i32 [ 16, %56 ], [ %60, %57 ]
  %63 = sext i32 %62 to i64
  %64 = load ptr, ptr %8, align 8, !tbaa !3
  %65 = getelementptr inbounds nuw %struct.mbedtls_hmac_drbg_context, ptr %64, i32 0, i32 3
  store i64 %63, ptr %65, align 8, !tbaa !23
  br label %66

66:                                               ; preds = %61, %38
  %67 = load ptr, ptr %8, align 8, !tbaa !3
  %68 = load ptr, ptr %12, align 8, !tbaa !14
  %69 = load i64, ptr %13, align 8, !tbaa !16
  %70 = call i32 @hmac_drbg_reseed_core(ptr noundef %67, ptr noundef %68, i64 noundef %69, i32 noundef 1)
  store i32 %70, ptr %14, align 4, !tbaa !19
  %71 = icmp ne i32 %70, 0
  br i1 %71, label %72, label %74

72:                                               ; preds = %66
  %73 = load i32, ptr %14, align 4, !tbaa !19
  store i32 %73, ptr %7, align 4
  store i32 1, ptr %16, align 4
  br label %75

74:                                               ; preds = %66
  store i32 0, ptr %7, align 4
  store i32 1, ptr %16, align 4
  br label %75

75:                                               ; preds = %74, %72, %36, %22
  call void @llvm.lifetime.end.p0(i64 8, ptr %15) #7
  call void @llvm.lifetime.end.p0(i64 4, ptr %14) #7
  %76 = load i32, ptr %7, align 4
  ret i32 %76
}