; Function Attrs: nounwind uwtable
define hidden i32 @mbedtls_hmac_drbg_seed(ptr noundef %0, ptr noundef %1, ptr noundef %2, ptr noundef %3, ptr noundef readonly %4, i64 noundef %5) local_unnamed_addr #2 {
  %7 = alloca [384 x i8], align 16
  %8 = tail call i32 @mbedtls_md_setup(ptr noundef %0, ptr noundef %1, i32 noundef 1) #12
  %.not = icmp eq i32 %8, 0
  br i1 %.not, label %9, label %54

9:                                                ; preds = %6
  %10 = tail call zeroext i8 @mbedtls_md_get_size(ptr noundef %1) #12
  %11 = zext i8 %10 to i64
  %12 = getelementptr inbounds nuw i8, ptr %0, i64 24
  %13 = tail call i32 @mbedtls_md_hmac_starts(ptr noundef %0, ptr noundef nonnull %12, i64 noundef %11) #12
  %.not25 = icmp eq i32 %13, 0
  br i1 %.not25, label %14, label %54

14:                                               ; preds = %9
  tail call void @llvm.memset.p0.i64(ptr nonnull align 8 %12, i8 1, i64 %11, i1 false)
  %15 = getelementptr inbounds nuw i8, ptr %0, i64 112
  store ptr %2, ptr %15, align 8, !tbaa !17
  %16 = getelementptr inbounds nuw i8, ptr %0, i64 120
  store ptr %3, ptr %16, align 8, !tbaa !18
  %17 = getelementptr inbounds nuw i8, ptr %0, i64 96
  %18 = load i64, ptr %17, align 8, !tbaa !16
  %19 = icmp eq i64 %18, 0
  br i1 %19, label %20, label %25

20:                                               ; preds = %14
  %21 = icmp ult i8 %10, 21
  %22 = icmp ult i8 %10, 29
  %23 = select i1 %22, i64 24, i64 32
  %24 = select i1 %21, i64 16, i64 %23
  store i64 %24, ptr %17, align 8, !tbaa !16
  br label %25

25:                                               ; preds = %20, %14
  %26 = phi i64 [ %24, %20 ], [ %18, %14 ]
  call void @llvm.lifetime.start.p0(i64 384, ptr nonnull %7) #12
  %27 = mul i64 %26, 3
  %28 = lshr i64 %27, 1
  %29 = icmp ugt i64 %5, 256
  %30 = add nuw i64 %28, %5
  %31 = icmp ugt i64 %30, 384
  %or.cond43.i = select i1 %29, i1 true, i1 %31
  br i1 %or.cond43.i, label %hmac_drbg_reseed_core.exit, label %.critedge.i

.critedge.i:                                      ; preds = %25
  call void @llvm.memset.p0.i64(ptr noundef nonnull align 16 dereferenceable(384) %7, i8 0, i64 384, i1 false)
  %32 = call i32 %2(ptr noundef %3, ptr noundef nonnull %7, i64 noundef %26) #12
  %.not.i = icmp eq i32 %32, 0
  br i1 %.not.i, label %33, label %hmac_drbg_reseed_core.exit

33:                                               ; preds = %.critedge.i
  %34 = load i64, ptr %17, align 8, !tbaa !16
  %35 = load ptr, ptr %15, align 8, !tbaa !17
  %36 = load ptr, ptr %16, align 8, !tbaa !18
  %37 = getelementptr inbounds nuw i8, ptr %7, i64 %34
  %38 = lshr i64 %34, 1
  %39 = call i32 %35(ptr noundef %36, ptr noundef nonnull %37, i64 noundef %38) #12
  %.not40.i = icmp eq i32 %39, 0
  br i1 %.not40.i, label %40, label %hmac_drbg_reseed_core.exit

40:                                               ; preds = %33
  %41 = load i64, ptr %17, align 8, !tbaa !16
  %42 = lshr i64 %41, 1
  %43 = add i64 %42, %34
  %44 = icmp ne ptr %4, null
  %45 = icmp ne i64 %5, 0
  %or.cond.i = and i1 %44, %45
  br i1 %or.cond.i, label %46, label %49

46:                                               ; preds = %40
  %47 = getelementptr inbounds nuw i8, ptr %7, i64 %43
  call void @llvm.memcpy.p0.p0.i64(ptr nonnull align 1 %47, ptr nonnull readonly align 1 %4, i64 %5, i1 false)
  %48 = add i64 %43, %5
  br label %49

49:                                               ; preds = %46, %40
  %.1.i = phi i64 [ %48, %46 ], [ %43, %40 ]
  %50 = call i32 @mbedtls_hmac_drbg_update(ptr noundef nonnull %0, ptr noundef nonnull %7, i64 noundef %.1.i)
  %.not41.i = icmp eq i32 %50, 0
  br i1 %.not41.i, label %51, label %53

51:                                               ; preds = %49
  %52 = getelementptr inbounds nuw i8, ptr %0, i64 88
  store i32 1, ptr %52, align 8, !tbaa !19
  br label %53

53:                                               ; preds = %51, %49
  call void @mbedtls_platform_zeroize(ptr noundef nonnull %7, i64 noundef %.1.i) #12
  br label %hmac_drbg_reseed_core.exit

hmac_drbg_reseed_core.exit:                       ; preds = %25, %.critedge.i, %33, %53
  %.135.i = phi i32 [ %50, %53 ], [ -5, %25 ], [ -9, %.critedge.i ], [ -9, %33 ]
  call void @llvm.lifetime.end.p0(i64 384, ptr nonnull %7) #12
  br label %54

54:                                               ; preds = %hmac_drbg_reseed_core.exit, %9, %6
  %.0 = phi i32 [ %8, %6 ], [ %13, %9 ], [ %.135.i, %hmac_drbg_reseed_core.exit ]
  ret i32 %.0
}